libgestures.so.0:DeleteGestureInterpreter
libgestures.so.0:GestureInterpreterInitialize
libgestures.so.0:GestureInterpreterPushHardwareState
libgestures.so.0:GestureInterpreterSetCallback
libgestures.so.0:GestureInterpreterSetHardwareProperties
libgestures.so.0:GestureInterpreterSetPropProvider
libgestures.so.0:GestureInterpreterSetTimerProvider
libgestures.so.0:NewGestureInterpreterImpl
libgestures.so.0:StimeFromTimespec
libgestures.so.0:StimeFromTimeval
libgestures.so.0:_ZN11FingerState11FlagsStringB5cxx11Ej
libgestures.so.0:_ZN13HardwareState14GetFingerStateEs
libgestures.so.0:_ZN13HardwareState8DeepCopyERKS_t
libgestures.so.0:_ZN8gestures11ActivityLog10LogGestureERK7Gesture
libgestures.so.0:_ZN8gestures11ActivityLog13AddEncodeInfoEPN4Json5ValueE
libgestures.so.0:_ZN8gestures11ActivityLog13EncodeGestureERK7Gesture
libgestures.so.0:_ZN8gestures11ActivityLog13LogPropChangeERKNS0_15PropChangeEntryE
libgestures.so.0:_ZN8gestures11ActivityLog16EncodeCommonInfoEv
libgestures.so.0:_ZN8gestures11ActivityLog16EncodePropChangeERKNS0_15PropChangeEntryE
libgestures.so.0:_ZN8gestures11ActivityLog16LogHardwareStateERK13HardwareState
libgestures.so.0:_ZN8gestures11ActivityLog16LogTimerCallbackEd
libgestures.so.0:_ZN8gestures11ActivityLog18EncodePropRegistryEv
libgestures.so.0:_ZN8gestures11ActivityLog18LogCallbackRequestEd
libgestures.so.0:_ZN8gestures11ActivityLog19EncodeHardwareStateERK13HardwareState
libgestures.so.0:_ZN8gestures11ActivityLog19EncodeTimerCallbackEd
libgestures.so.0:_ZN8gestures11ActivityLog21EncodeCallbackRequestEd
libgestures.so.0:_ZN8gestures11ActivityLog21SetHardwarePropertiesERK18HardwareProperties
libgestures.so.0:_ZN8gestures11ActivityLog4DumpEPKc
libgestures.so.0:_ZN8gestures11ActivityLog6EncodeB5cxx11Ev
libgestures.so.0:_ZN8gestures11ActivityLog8PushBackEv
libgestures.so.0:_ZN8gestures11ActivityLogC1EPNS_12PropRegistryE
libgestures.so.0:_ZN8gestures11ActivityLogC2EPNS_12PropRegistryE
libgestures.so.0:_ZN8gestures11IntProperty14CreatePropImplEv
libgestures.so.0:_ZN8gestures11IntProperty25HandleGesturesPropWrittenEv
libgestures.so.0:_ZN8gestures11IntProperty8SetValueERKN4Json5ValueE
libgestures.so.0:_ZN8gestures11Interpreter10InitializeEPK18HardwarePropertiesPNS_7MetricsEPNS_17MetricsPropertiesEPNS_15GestureConsumerE
libgestures.so.0:_ZN8gestures11Interpreter10LogOutputsEPK7GesturePdPKc
libgestures.so.0:_ZN8gestures11Interpreter11HandleTimerEdPd
libgestures.so.0:_ZN8gestures11Interpreter13SyncInterpretEP13HardwareStatePd
libgestures.so.0:_ZN8gestures11Interpreter14ProduceGestureERK7Gesture
libgestures.so.0:_ZN8gestures11Interpreter16EncodeCommonInfoEv
libgestures.so.0:_ZN8gestures11Interpreter5TraceEPKcS2_
libgestures.so.0:_ZN8gestures11Interpreter6EncodeB5cxx11Ev
libgestures.so.0:_ZN8gestures11Interpreter8InitNameEv
libgestures.so.0:_ZN8gestures11InterpreterC1EPNS_12PropRegistryEPNS_6TracerEb
libgestures.so.0:_ZN8gestures11InterpreterC2EPNS_12PropRegistryEPNS_6TracerEb
libgestures.so.0:_ZN8gestures11InterpreterD0Ev
libgestures.so.0:_ZN8gestures11InterpreterD1Ev
libgestures.so.0:_ZN8gestures11InterpreterD2Ev
libgestures.so.0:_ZN8gestures11ScrollEvent3AddERKS0_S2_
libgestures.so.0:_ZN8gestures11SplitStringERKNSt7__cxx1112basic_stringIcSt11char_traitsIcESaIcEEEcPSt6vectorIS5_SaIS5_EE
libgestures.so.0:_ZN8gestures11TraceMarker10TraceWriteEPKc
libgestures.so.0:_ZN8gestures11TraceMarker14GetTraceMarkerEv
libgestures.so.0:_ZN8gestures11TraceMarker15OpenTraceMarkerEv
libgestures.so.0:_ZN8gestures11TraceMarker16StaticTraceWriteEPKc
libgestures.so.0:_ZN8gestures11TraceMarker17CreateTraceMarkerEv
libgestures.so.0:_ZN8gestures11TraceMarker17DeleteTraceMarkerEv
libgestures.so.0:_ZN8gestures11TraceMarkerC1Ev
libgestures.so.0:_ZN8gestures11TraceMarkerC2Ev
libgestures.so.0:_ZN8gestures11TraceMarkerD1Ev
libgestures.so.0:_ZN8gestures11TraceMarkerD2Ev
libgestures.so.0:_ZN8gestures12BoolProperty14CreatePropImplEv
libgestures.so.0:_ZN8gestures12BoolProperty25HandleGesturesPropWrittenEv
libgestures.so.0:_ZN8gestures12BoolProperty8SetValueERKN4Json5ValueE
libgestures.so.0:_ZN8gestures12PropRegistry10UnregisterEPNS_8PropertyE
libgestures.so.0:_ZN8gestures12PropRegistry15SetPropProviderEP20GesturesPropProviderPv
libgestures.so.0:_ZN8gestures12PropRegistry8RegisterEPNS_8PropertyE
libgestures.so.0:_ZN8gestures12StringPrintfB5cxx11EPKcz
libgestures.so.0:_ZN8gestures13FingerMetrics6UpdateERK11FingerStatedb
libgestures.so.0:_ZN8gestures13FingerMetricsC1ERK11FingerStatePNS_17MetricsPropertiesEd
libgestures.so.0:_ZN8gestures13FingerMetricsC1Es
libgestures.so.0:_ZN8gestures13FingerMetricsC1Ev
libgestures.so.0:_ZN8gestures13FingerMetricsC2ERK11FingerStatePNS_17MetricsPropertiesEd
libgestures.so.0:_ZN8gestures13FingerMetricsC2Es
libgestures.so.0:_ZN8gestures13FingerMetricsC2Ev
libgestures.so.0:_ZN8gestures13ScrollManager13ComputeScrollERKNS_19HardwareStateBufferERKNS_3setIsLm3EEES7_11GestureTypeRK7GesturePS9_PNS_17ScrollEventBufferE
libgestures.so.0:_ZN8gestures13ScrollManager32SuppressStationaryFingerMovementERK11FingerStateS3_d
libgestures.so.0:_ZN8gestures13ScrollManagerC1EPNS_12PropRegistryE
libgestures.so.0:_ZN8gestures13ScrollManagerC2EPNS_12PropRegistryE
libgestures.so.0:_ZN8gestures13ShortProperty14CreatePropImplEv
libgestures.so.0:_ZN8gestures13ShortProperty25HandleGesturesPropWrittenEv
libgestures.so.0:_ZN8gestures13ShortProperty8SetValueERKN4Json5ValueE
libgestures.so.0:_ZN8gestures13StringAppendVEPNSt7__cxx1112basic_stringIcSt11char_traitsIcESaIcEEEPKcP13__va_list_tag
libgestures.so.0:_ZN8gestures14DoubleProperty14CreatePropImplEv
libgestures.so.0:_ZN8gestures14DoubleProperty25HandleGesturesPropWrittenEv
libgestures.so.0:_ZN8gestures14DoubleProperty8SetValueERKN4Json5ValueE
libgestures.so.0:_ZN8gestures14StringProperty14CreatePropImplEv
libgestures.so.0:_ZN8gestures14StringProperty25HandleGesturesPropWrittenEv
libgestures.so.0:_ZN8gestures14StringProperty8SetValueERKN4Json5ValueE
libgestures.so.0:_ZN8gestures15CombineGesturesEP7GesturePKS0_
libgestures.so.0:_ZN8gestures15StartsWithASCIIERKNSt7__cxx1112basic_stringIcSt11char_traitsIcESaIcEEES7_b
libgestures.so.0:_ZN8gestures16IntArrayProperty14CreatePropImplEv
libgestures.so.0:_ZN8gestures16IntArrayProperty25HandleGesturesPropWrittenEv
libgestures.so.0:_ZN8gestures16IntArrayProperty8SetValueERKN4Json5ValueE
libgestures.so.0:_ZN8gestures16MouseInterpreter13ComputeScrollEd
libgestures.so.0:_ZN8gestures16MouseInterpreter17SyncInterpretImplEP13HardwareStatePd
libgestures.so.0:_ZN8gestures16MouseInterpreter18EmulateScrollWheelERK13HardwareState
libgestures.so.0:_ZN8gestures16MouseInterpreter25InterpretMouseButtonEventERK13HardwareStateS3_
libgestures.so.0:_ZN8gestures16MouseInterpreter25InterpretMouseMotionEventERK13HardwareStateS3_
libgestures.so.0:_ZN8gestures16MouseInterpreter25InterpretScrollWheelEventERK13HardwareStateb
libgestures.so.0:_ZN8gestures16MouseInterpreterC1EPNS_12PropRegistryEPNS_6TracerE
libgestures.so.0:_ZN8gestures16MouseInterpreterC2EPNS_12PropRegistryEPNS_6TracerE
libgestures.so.0:_ZN8gestures16ReadFileToStringEPKcPNSt7__cxx1112basic_stringIcSt11char_traitsIcESaIcEEE
libgestures.so.0:_ZN8gestures16ReadFileToStringEPKcPNSt7__cxx1112basic_stringIcSt11char_traitsIcESaIcEEEm
libgestures.so.0:_ZN8gestures17BoolArrayProperty14CreatePropImplEv
libgestures.so.0:_ZN8gestures17BoolArrayProperty25HandleGesturesPropWrittenEv
libgestures.so.0:_ZN8gestures17BoolArrayProperty8SetValueERKN4Json5ValueE
libgestures.so.0:_ZN8gestures17FilterInterpreter10InitializeEPK18HardwarePropertiesPNS_7MetricsEPNS_17MetricsPropertiesEPNS_15GestureConsumerE
libgestures.so.0:_ZN8gestures17FilterInterpreter14ConsumeGestureERK7Gesture
libgestures.so.0:_ZN8gestures17FilterInterpreter15HandleTimerImplEdPd
libgestures.so.0:_ZN8gestures17FilterInterpreter16EncodeCommonInfoEv
libgestures.so.0:_ZN8gestures17FilterInterpreter17SyncInterpretImplEP13HardwareStatePd
libgestures.so.0:_ZN8gestures17FilterInterpreter5ClearEv
libgestures.so.0:_ZN8gestures17FingerButtonClick27EvaluateTwoFingerButtonTypeEv
libgestures.so.0:_ZN8gestures17FingerButtonClick35EvaluateThreeOrMoreFingerButtonTypeEv
libgestures.so.0:_ZN8gestures17FingerButtonClick37EvaluateButtonTypeUsingFigureLocationEv
libgestures.so.0:_ZN8gestures17FingerButtonClick6UpdateERK13HardwareStated
libgestures.so.0:_ZN8gestures17FingerButtonClickC1EPKNS_20ImmediateInterpreterE
libgestures.so.0:_ZN8gestures17FingerButtonClickC2EPKNS_20ImmediateInterpreterE
libgestures.so.0:_ZN8gestures17MetricsPropertiesC1EPNS_12PropRegistryE
libgestures.so.0:_ZN8gestures17MetricsPropertiesC2EPNS_12PropRegistryE
libgestures.so.0:_ZN8gestures17ScrollEventBuffer5ClearEv
libgestures.so.0:_ZN8gestures17ScrollEventBuffer6InsertEfff
libgestures.so.0:_ZN8gestures18GestureInterpreter10InitializeE29GestureInterpreterDeviceClass
libgestures.so.0:_ZN8gestures18GestureInterpreter12set_callbackEPFvPvPK7GestureES1_
libgestures.so.0:_ZN8gestures18GestureInterpreter13TimerCallbackEdPd
libgestures.so.0:_ZN8gestures18GestureInterpreter15InitializeMouseEv
libgestures.so.0:_ZN8gestures18GestureInterpreter15SetPropProviderEP20GesturesPropProviderPv
libgestures.so.0:_ZN8gestures18GestureInterpreter16SetTimerProviderEP21GesturesTimerProviderPv
libgestures.so.0:_ZN8gestures18GestureInterpreter17EncodeActivityLogB5cxx11Ev
libgestures.so.0:_ZN8gestures18GestureInterpreter17PushHardwareStateEP13HardwareState
libgestures.so.0:_ZN8gestures18GestureInterpreter18InitializeTouchpadEv
libgestures.so.0:_ZN8gestures18GestureInterpreter19InitializeTouchpad2Ev
libgestures.so.0:_ZN8gestures18GestureInterpreter21SetHardwarePropertiesERK18HardwareProperties
libgestures.so.0:_ZN8gestures18GestureInterpreter25InitializeMultitouchMouseEv
libgestures.so.0:_ZN8gestures18GestureInterpreterC1Ei
libgestures.so.0:_ZN8gestures18GestureInterpreterC2Ei
libgestures.so.0:_ZN8gestures18GestureInterpreterD1Ev
libgestures.so.0:_ZN8gestures18GestureInterpreterD2Ev
libgestures.so.0:_ZN8gestures18ShortArrayProperty14CreatePropImplEv
libgestures.so.0:_ZN8gestures18ShortArrayProperty25HandleGesturesPropWrittenEv
libgestures.so.0:_ZN8gestures18ShortArrayProperty8SetValueERKN4Json5ValueE
libgestures.so.0:_ZN8gestures19DoubleArrayProperty14CreatePropImplEv
libgestures.so.0:_ZN8gestures19DoubleArrayProperty25HandleGesturesPropWrittenEv
libgestures.so.0:_ZN8gestures19DoubleArrayProperty8SetValueERKN4Json5ValueE
libgestures.so.0:_ZN8gestures19FingerEnergyHistory14IsFingerMovingEf
libgestures.so.0:_ZN8gestures19FingerEnergyHistory15PushFingerStateERK11FingerStated
libgestures.so.0:_ZN8gestures19HardwareStateBuffer5ResetEm
libgestures.so.0:_ZN8gestures19HardwareStateBuffer8PopStateEv
libgestures.so.0:_ZN8gestures19HardwareStateBuffer9PushStateERK13HardwareState
libgestures.so.0:_ZN8gestures19HardwareStateBufferC1Em
libgestures.so.0:_ZN8gestures19HardwareStateBufferC2Em
libgestures.so.0:_ZN8gestures19HardwareStateBufferD1Ev
libgestures.so.0:_ZN8gestures19HardwareStateBufferD2Ev
libgestures.so.0:_ZN8gestures19TrimWhitespaceASCIIERKNSt7__cxx1112basic_stringIcSt11char_traitsIcESaIcEEENS_13TrimPositionsEPS5_
libgestures.so.0:_ZN8gestures19WriteFileDescriptorEiPKci
libgestures.so.0:_ZN8gestures20BoxFilterInterpreter17SyncInterpretImplEP13HardwareStatePd
libgestures.so.0:_ZN8gestures20BoxFilterInterpreterC1EPNS_12PropRegistryEPNS_11InterpreterEPNS_6TracerE
libgestures.so.0:_ZN8gestures20BoxFilterInterpreterC2EPNS_12PropRegistryEPNS_11InterpreterEPNS_6TracerE
libgestures.so.0:_ZN8gestures20IirFilterInterpreter16DoubleWasWrittenEPNS_14DoublePropertyE
libgestures.so.0:_ZN8gestures20IirFilterInterpreter17SyncInterpretImplEP13HardwareStatePd
libgestures.so.0:_ZN8gestures20IirFilterInterpreter9IoHistory6WarpByEff
libgestures.so.0:_ZN8gestures20IirFilterInterpreter9IoHistory9IncrementEv
libgestures.so.0:_ZN8gestures20IirFilterInterpreterC1EPNS_12PropRegistryEPNS_11InterpreterEPNS_6TracerE
libgestures.so.0:_ZN8gestures20IirFilterInterpreterC2EPNS_12PropRegistryEPNS_11InterpreterEPNS_6TracerE
libgestures.so.0:_ZN8gestures20ImmediateInterpreter10InitializeEPK18HardwarePropertiesPNS_7MetricsEPNS_17MetricsPropertiesEPNS_15GestureConsumerE
libgestures.so.0:_ZN8gestures20ImmediateInterpreter13IntWasWrittenEPNS_11IntPropertyE
libgestures.so.0:_ZN8gestures20ImmediateInterpreter13UpdateButtonsERK13HardwareStatePd
libgestures.so.0:_ZN8gestures20ImmediateInterpreter14FillOriginInfoERK13HardwareState
libgestures.so.0:_ZN8gestures20ImmediateInterpreter14UpdateTapStateEPK13HardwareStateRKNS_3setIsLm3EEEbdPjS8_Pd
libgestures.so.0:_ZN8gestures20ImmediateInterpreter15HandleTimerImplEdPd
libgestures.so.0:_ZN8gestures20ImmediateInterpreter16UpdatePinchStateERK13HardwareStateb
libgestures.so.0:_ZN8gestures20ImmediateInterpreter16UpdateTapGestureEPK13HardwareStateRKNS_3setIsLm3EEEbdPd
libgestures.so.0:_ZN8gestures20ImmediateInterpreter16UpdateThumbStateERK13HardwareState
libgestures.so.0:_ZN8gestures20ImmediateInterpreter17FillResultGestureERK13HardwareStateRKNS_3setIsLm3EEE
libgestures.so.0:_ZN8gestures20ImmediateInterpreter17SyncInterpretImplEP13HardwareStatePd
libgestures.so.0:_ZN8gestures20ImmediateInterpreter18EvaluateButtonTypeERK13HardwareStated
libgestures.so.0:_ZN8gestures20ImmediateInterpreter18FillStartPositionsERK13HardwareState
libgestures.so.0:_ZN8gestures20ImmediateInterpreter18SetTapToClickStateENS0_15TapToClickStateEd
libgestures.so.0:_ZN8gestures20ImmediateInterpreter18TimeoutForTtcStateENS0_15TapToClickStateE
libgestures.so.0:_ZN8gestures20ImmediateInterpreter18UpdateNonGsFingersERK13HardwareState
libgestures.so.0:_ZN8gestures20ImmediateInterpreter19FingerTooCloseToTapERK13HardwareStateRK11FingerState
libgestures.so.0:_ZN8gestures20ImmediateInterpreter19TapToClickStateNameENS0_15TapToClickStateE
libgestures.so.0:_ZN8gestures20ImmediateInterpreter19UpdateMovingFingersERK13HardwareState
libgestures.so.0:_ZN8gestures20ImmediateInterpreter20UpdateButtonsTimeoutEd
libgestures.so.0:_ZN8gestures20ImmediateInterpreter21ResetSameFingersStateERK13HardwareState
libgestures.so.0:_ZN8gestures20ImmediateInterpreter21UpdatePointingFingersERK13HardwareState
libgestures.so.0:_ZN8gestures20ImmediateInterpreter22SortFingersByProximityERKNS_3setIsLm3EEERK13HardwareStatePNS_6vectorIsLm3EEE
libgestures.so.0:_ZN8gestures20ImmediateInterpreter23GetTwoFingerGestureTypeERK11FingerStateS3_
libgestures.so.0:_ZN8gestures20ImmediateInterpreter23UpdateStartedMovingTimeEdRKNS_3setIsLm3EEES4_
libgestures.so.0:_ZN8gestures20ImmediateInterpreter24UpdateCurrentGestureTypeERK13HardwareStateRKNS_3setIsLm3EEEPS5_
libgestures.so.0:_ZN8gestures20ImmediateInterpreter25GetButtonTypeFromPositionERK13HardwareState
libgestures.so.0:_ZN8gestures20ImmediateInterpreter25GetThreeFingerGestureTypeEPKPK11FingerState
libgestures.so.0:_ZN8gestures20ImmediateInterpreterC1EPNS_12PropRegistryEPNS_6TracerE
libgestures.so.0:_ZN8gestures20ImmediateInterpreterC2EPNS_12PropRegistryEPNS_6TracerE
libgestures.so.0:_ZN8gestures22AccelFilterInterpreter14ConsumeGestureERK7Gesture
libgestures.so.0:_ZN8gestures22AccelFilterInterpreterC1EPNS_12PropRegistryEPNS_11InterpreterEPNS_6TracerE
libgestures.so.0:_ZN8gestures22AccelFilterInterpreterC2EPNS_12PropRegistryEPNS_11InterpreterEPNS_6TracerE
libgestures.so.0:_ZN8gestures22AnyGesturingFingerLeftERK13HardwareStateRKNS_3setIsLm3EEE
libgestures.so.0:_ZN8gestures22CombineButtonsGesturesEP7GesturePKS0_
libgestures.so.0:_ZN8gestures22CombineGesturePriorityEPK7Gesture
libgestures.so.0:_ZN8gestures24LoggingFilterInterpreter13IntWasWrittenEPNS_11IntPropertyE
libgestures.so.0:_ZN8gestures24LoggingFilterInterpreter17EncodeActivityLogB5cxx11Ev
libgestures.so.0:_ZN8gestures24LoggingFilterInterpreter4DumpEPKc
libgestures.so.0:_ZN8gestures24LoggingFilterInterpreterC1EPNS_12PropRegistryEPNS_11InterpreterEPNS_6TracerE
libgestures.so.0:_ZN8gestures24LoggingFilterInterpreterC2EPNS_12PropRegistryEPNS_11InterpreterEPNS_6TracerE
libgestures.so.0:_ZN8gestures24MetricsFilterInterpreter17DetectNoisyGroundEPKNS_17MemoryManagedListINS0_5StateI11FingerStateLm3EEEEE
libgestures.so.0:_ZN8gestures24MetricsFilterInterpreter17SyncInterpretImplEP13HardwareStatePd
libgestures.so.0:_ZN8gestures24MetricsFilterInterpreter17UpdateFingerStateERK13HardwareState
libgestures.so.0:_ZN8gestures24MetricsFilterInterpreter21ReportMouseStatisticsEv
libgestures.so.0:_ZN8gestures24MetricsFilterInterpreter24UpdateMouseMovementStateERK13HardwareState
libgestures.so.0:_ZN8gestures24MetricsFilterInterpreterC1EPNS_12PropRegistryEPNS_11InterpreterEPNS_6TracerE29GestureInterpreterDeviceClass
libgestures.so.0:_ZN8gestures24MetricsFilterInterpreterC2EPNS_12PropRegistryEPNS_11InterpreterEPNS_6TracerE29GestureInterpreterDeviceClass
libgestures.so.0:_ZN8gestures24ScalingFilterInterpreter10InitializeEPK18HardwarePropertiesPNS_7MetricsEPNS_17MetricsPropertiesEPNS_15GestureConsumerE
libgestures.so.0:_ZN8gestures24ScalingFilterInterpreter13IsMouseDeviceE29GestureInterpreterDeviceClass
libgestures.so.0:_ZN8gestures24ScalingFilterInterpreter14ConsumeGestureERK7Gesture
libgestures.so.0:_ZN8gestures24ScalingFilterInterpreter14FilterZeroAreaEP13HardwareState
libgestures.so.0:_ZN8gestures24ScalingFilterInterpreter16IsTouchpadDeviceE29GestureInterpreterDeviceClass
libgestures.so.0:_ZN8gestures24ScalingFilterInterpreter17FilterLowPressureEP13HardwareState
libgestures.so.0:_ZN8gestures24ScalingFilterInterpreter17SyncInterpretImplEP13HardwareStatePd
libgestures.so.0:_ZN8gestures24ScalingFilterInterpreter18ScaleHardwareStateEP13HardwareState
libgestures.so.0:_ZN8gestures24ScalingFilterInterpreter23ScaleMouseHardwareStateEP13HardwareState
libgestures.so.0:_ZN8gestures24ScalingFilterInterpreter26ScaleTouchpadHardwareStateEP13HardwareState
libgestures.so.0:_ZN8gestures24ScalingFilterInterpreterC1EPNS_12PropRegistryEPNS_11InterpreterEPNS_6TracerE29GestureInterpreterDeviceClass
libgestures.so.0:_ZN8gestures24ScalingFilterInterpreterC2EPNS_12PropRegistryEPNS_11InterpreterEPNS_6TracerE29GestureInterpreterDeviceClass
libgestures.so.0:_ZN8gestures26FlingStopFilterInterpreter14ConsumeGestureERK7Gesture
libgestures.so.0:_ZN8gestures26FlingStopFilterInterpreter15HandleTimerImplEdPd
libgestures.so.0:_ZN8gestures26FlingStopFilterInterpreter17SyncInterpretImplEP13HardwareStatePd
libgestures.so.0:_ZN8gestures26FlingStopFilterInterpreter23UpdateFlingStopDeadlineERK13HardwareState
libgestures.so.0:_ZN8gestures26FlingStopFilterInterpreter34SetNextDeadlineAndReturnTimeoutValEdd
libgestures.so.0:_ZN8gestures26FlingStopFilterInterpreterC1EPNS_12PropRegistryEPNS_11InterpreterEPNS_6TracerE
libgestures.so.0:_ZN8gestures26FlingStopFilterInterpreterC2EPNS_12PropRegistryEPNS_11InterpreterEPNS_6TracerE
libgestures.so.0:_ZN8gestures26LookaheadFilterInterpreter10InitializeEPK18HardwarePropertiesPNS_7MetricsEPNS_17MetricsPropertiesEPNS_15GestureConsumerE
libgestures.so.0:_ZN8gestures26LookaheadFilterInterpreter11InterpolateERK13HardwareStateS3_PS1_
libgestures.so.0:_ZN8gestures26LookaheadFilterInterpreter14ConsumeGestureERK7Gesture
libgestures.so.0:_ZN8gestures26LookaheadFilterInterpreter14NextTrackingIdEv
libgestures.so.0:_ZN8gestures26LookaheadFilterInterpreter14SeparateFingerEPNS0_6QStateEP11FingerStates
libgestures.so.0:_ZN8gestures26LookaheadFilterInterpreter15HandleTimerImplEdPd
libgestures.so.0:_ZN8gestures26LookaheadFilterInterpreter17AssignTrackingIdsEv
libgestures.so.0:_ZN8gestures26LookaheadFilterInterpreter17SyncInterpretImplEP13HardwareStatePd
libgestures.so.0:_ZN8gestures26LookaheadFilterInterpreter20AttemptInterpolationEv
libgestures.so.0:_ZN8gestures26LookaheadFilterInterpreter20UpdateInterpreterDueEddPd
libgestures.so.0:_ZN8gestures26LookaheadFilterInterpreter23TapDownOccurringGestureEd
libgestures.so.0:_ZN8gestures26LookaheadFilterInterpreter6QState9set_stateERK13HardwareState
libgestures.so.0:_ZN8gestures26LookaheadFilterInterpreter6QStateC1Et
libgestures.so.0:_ZN8gestures26LookaheadFilterInterpreter6QStateC1Ev
libgestures.so.0:_ZN8gestures26LookaheadFilterInterpreter6QStateC2Et
libgestures.so.0:_ZN8gestures26LookaheadFilterInterpreter6QStateC2Ev
libgestures.so.0:_ZN8gestures26LookaheadFilterInterpreterC1EPNS_12PropRegistryEPNS_11InterpreterEPNS_6TracerE
libgestures.so.0:_ZN8gestures26LookaheadFilterInterpreterC2EPNS_12PropRegistryEPNS_11InterpreterEPNS_6TracerE
libgestures.so.0:_ZN8gestures26MultitouchMouseInterpreter10InitializeEPK18HardwarePropertiesPNS_7MetricsEPNS_17MetricsPropertiesEPNS_15GestureConsumerE
libgestures.so.0:_ZN8gestures26MultitouchMouseInterpreter14ProduceGestureERK7Gesture
libgestures.so.0:_ZN8gestures26MultitouchMouseInterpreter17SyncInterpretImplEP13HardwareStatePd
libgestures.so.0:_ZN8gestures26MultitouchMouseInterpreter24InterpretMultitouchEventEv
libgestures.so.0:_ZN8gestures26MultitouchMouseInterpreterC1EPNS_12PropRegistryEPNS_6TracerE
libgestures.so.0:_ZN8gestures26MultitouchMouseInterpreterC2EPNS_12PropRegistryEPNS_6TracerE
libgestures.so.0:_ZN8gestures27SensorJumpFilterInterpreter17SyncInterpretImplEP13HardwareStatePd
libgestures.so.0:_ZN8gestures27SensorJumpFilterInterpreterC1EPNS_12PropRegistryEPNS_11InterpreterEPNS_6TracerE
libgestures.so.0:_ZN8gestures27SensorJumpFilterInterpreterC2EPNS_12PropRegistryEPNS_11InterpreterEPNS_6TracerE
libgestures.so.0:_ZN8gestures28ClickWiggleFilterInterpreter17SyncInterpretImplEP13HardwareStatePd
libgestures.so.0:_ZN8gestures28ClickWiggleFilterInterpreter17UpdateClickWiggleERK13HardwareState
libgestures.so.0:_ZN8gestures28ClickWiggleFilterInterpreterC1EPNS_12PropRegistryEPNS_11InterpreterEPNS_6TracerE
libgestures.so.0:_ZN8gestures28ClickWiggleFilterInterpreterC2EPNS_12PropRegistryEPNS_11InterpreterEPNS_6TracerE
libgestures.so.0:_ZN8gestures28FingerMergeFilterInterpreter17SyncInterpretImplEP13HardwareStatePd
libgestures.so.0:_ZN8gestures28FingerMergeFilterInterpreter22UpdateFingerMergeStateERK13HardwareState
libgestures.so.0:_ZN8gestures28FingerMergeFilterInterpreterC1EPNS_12PropRegistryEPNS_11InterpreterEPNS_6TracerE
libgestures.so.0:_ZN8gestures28FingerMergeFilterInterpreterC2EPNS_12PropRegistryEPNS_11InterpreterEPNS_6TracerE
libgestures.so.0:_ZN8gestures29NonLinearityFilterInterpreter10ReadObjectEPvmP8_IO_FILE
libgestures.so.0:_ZN8gestures29NonLinearityFilterInterpreter17SyncInterpretImplEP13HardwareStatePd
libgestures.so.0:_ZN8gestures29NonLinearityFilterInterpreter8LoadDataEv
libgestures.so.0:_ZN8gestures29NonLinearityFilterInterpreter9LoadRangeERSt10unique_ptrIA_dSt14default_deleteIS2_EERmP8_IO_FILE
libgestures.so.0:_ZN8gestures29NonLinearityFilterInterpreterC1EPNS_12PropRegistryEPNS_11InterpreterEPNS_6TracerE
libgestures.so.0:_ZN8gestures29NonLinearityFilterInterpreterC2EPNS_12PropRegistryEPNS_11InterpreterEPNS_6TracerE
libgestures.so.0:_ZN8gestures31T5R2CorrectingFilterInterpreter17SyncInterpretImplEP13HardwareStatePd
libgestures.so.0:_ZN8gestures31T5R2CorrectingFilterInterpreterC1EPNS_12PropRegistryEPNS_11InterpreterEPNS_6TracerE
libgestures.so.0:_ZN8gestures31T5R2CorrectingFilterInterpreterC2EPNS_12PropRegistryEPNS_11InterpreterEPNS_6TracerE
libgestures.so.0:_ZN8gestures32IntegralGestureFilterInterpreter14ConsumeGestureERK7Gesture
libgestures.so.0:_ZN8gestures32IntegralGestureFilterInterpreter17SyncInterpretImplEP13HardwareStatePd
libgestures.so.0:_ZN8gestures32IntegralGestureFilterInterpreterC1EPNS_11InterpreterEPNS_6TracerE
libgestures.so.0:_ZN8gestures32IntegralGestureFilterInterpreterC2EPNS_11InterpreterEPNS_6TracerE
libgestures.so.0:_ZN8gestures32PalmClassifyingFilterInterpreter12FillPrevInfoERK13HardwareState
libgestures.so.0:_ZN8gestures32PalmClassifyingFilterInterpreter14FillOriginInfoERK13HardwareState
libgestures.so.0:_ZN8gestures32PalmClassifyingFilterInterpreter15UpdatePalmFlagsEP13HardwareState
libgestures.so.0:_ZN8gestures32PalmClassifyingFilterInterpreter15UpdatePalmStateERK13HardwareState
libgestures.so.0:_ZN8gestures32PalmClassifyingFilterInterpreter17SyncInterpretImplEP13HardwareStatePd
libgestures.so.0:_ZN8gestures32PalmClassifyingFilterInterpreter18FingerInBottomAreaERK11FingerState
libgestures.so.0:_ZN8gestures32PalmClassifyingFilterInterpreter18UpdateDistanceInfoERK13HardwareState
libgestures.so.0:_ZN8gestures32PalmClassifyingFilterInterpreter20FingerInPalmEnvelopeERK11FingerState
libgestures.so.0:_ZN8gestures32PalmClassifyingFilterInterpreter21FingerNearOtherFingerERK13HardwareStatem
libgestures.so.0:_ZN8gestures32PalmClassifyingFilterInterpreter24FillMaxPressureWidthInfoERK13HardwareState
libgestures.so.0:_ZN8gestures32PalmClassifyingFilterInterpreterC1EPNS_12PropRegistryEPNS_11InterpreterEPNS_6TracerE
libgestures.so.0:_ZN8gestures32PalmClassifyingFilterInterpreterC2EPNS_12PropRegistryEPNS_11InterpreterEPNS_6TracerE
libgestures.so.0:_ZN8gestures32SplitCorrectingFilterInterpreter12MergeFingersERK13HardwareState
libgestures.so.0:_ZN8gestures32SplitCorrectingFilterInterpreter14UnmergeFingersERK13HardwareState
libgestures.so.0:_ZN8gestures32SplitCorrectingFilterInterpreter15JoinFingerStateEP11FingerStateRKS1_
libgestures.so.0:_ZN8gestures32SplitCorrectingFilterInterpreter17SyncInterpretImplEP13HardwareStatePd
libgestures.so.0:_ZN8gestures32SplitCorrectingFilterInterpreter18SetLastTrackingIdsERK13HardwareState
libgestures.so.0:_ZN8gestures32SplitCorrectingFilterInterpreter19AppendMergedContactERK11FingerStateS3_s
libgestures.so.0:_ZN8gestures32SplitCorrectingFilterInterpreter21AppendUnmergedContactERK11FingerStates
libgestures.so.0:_ZN8gestures32SplitCorrectingFilterInterpreter21DistSqFromPointToLineEffffff
libgestures.so.0:_ZN8gestures32SplitCorrectingFilterInterpreter23UpdateUnmergedLocationsERK13HardwareState
libgestures.so.0:_ZN8gestures32SplitCorrectingFilterInterpreter29RemoveMissingUnmergedContactsERK13HardwareState
libgestures.so.0:_ZN8gestures32SplitCorrectingFilterInterpreter34RemoveFingerStateFromHardwareStateEP13HardwareStateP11FingerState
libgestures.so.0:_ZN8gestures32SplitCorrectingFilterInterpreterC1EPNS_12PropRegistryEPNS_11InterpreterEPNS_6TracerE
libgestures.so.0:_ZN8gestures32SplitCorrectingFilterInterpreterC2EPNS_12PropRegistryEPNS_11InterpreterEPNS_6TracerE
libgestures.so.0:_ZN8gestures33StationaryWiggleFilterInterpreter17SyncInterpretImplEP13HardwareStatePd
libgestures.so.0:_ZN8gestures33StationaryWiggleFilterInterpreter21UpdateStationaryFlagsEP13HardwareState
libgestures.so.0:_ZN8gestures33StationaryWiggleFilterInterpreterC1EPNS_12PropRegistryEPNS_11InterpreterEPNS_6TracerE
libgestures.so.0:_ZN8gestures33StationaryWiggleFilterInterpreterC2EPNS_12PropRegistryEPNS_11InterpreterEPNS_6TracerE
libgestures.so.0:_ZN8gestures33TrendClassifyingFilterInterpreter17ComputeKTVarianceEiim
libgestures.so.0:_ZN8gestures33TrendClassifyingFilterInterpreter17SyncInterpretImplEP13HardwareStatePd
libgestures.so.0:_ZN8gestures33TrendClassifyingFilterInterpreter17UpdateFingerStateERK13HardwareState
libgestures.so.0:_ZN8gestures33TrendClassifyingFilterInterpreter19AddNewStateToBufferEPNS_17MemoryManagedListINS0_6KStateEEERK11FingerState
libgestures.so.0:_ZN8gestures33TrendClassifyingFilterInterpreter19InterpretTestResultENS0_9TrendTypeEjjPj
libgestures.so.0:_ZN8gestures33TrendClassifyingFilterInterpreter6KState4InitERK11FingerState
libgestures.so.0:_ZN8gestures33TrendClassifyingFilterInterpreter6KState4InitEv
libgestures.so.0:_ZN8gestures33TrendClassifyingFilterInterpreter9RunKTTestEPKNS0_6KState5KAxisEm
libgestures.so.0:_ZN8gestures33TrendClassifyingFilterInterpreterC1EPNS_12PropRegistryEPNS_11InterpreterEPNS_6TracerE
libgestures.so.0:_ZN8gestures33TrendClassifyingFilterInterpreterC2EPNS_12PropRegistryEPNS_11InterpreterEPNS_6TracerE
libgestures.so.0:_ZN8gestures34Cr48ProfileSensorFilterInterpreter11SetPositionEPNS_14FingerPositionEP13HardwareState
libgestures.so.0:_ZN8gestures34Cr48ProfileSensorFilterInterpreter12ClearHistoryEv
libgestures.so.0:_ZN8gestures34Cr48ProfileSensorFilterInterpreter13UpdateHistoryEP13HardwareState
libgestures.so.0:_ZN8gestures34Cr48ProfileSensorFilterInterpreter16AssignTrackingIdEP13HardwareState
libgestures.so.0:_ZN8gestures34Cr48ProfileSensorFilterInterpreter17LowPressureFilterEP13HardwareState
libgestures.so.0:_ZN8gestures34Cr48ProfileSensorFilterInterpreter17SyncInterpretImplEP13HardwareStatePd
libgestures.so.0:_ZN8gestures34Cr48ProfileSensorFilterInterpreter18InitCurrentPatternEP13HardwareStateRKNS_14FingerPositionE
libgestures.so.0:_ZN8gestures34Cr48ProfileSensorFilterInterpreter18SuppressSensorJumpEP13HardwareState
libgestures.so.0:_ZN8gestures34Cr48ProfileSensorFilterInterpreter18SwapFingerPatternXEP13HardwareState
libgestures.so.0:_ZN8gestures34Cr48ProfileSensorFilterInterpreter18SwapFingerPatternYEP13HardwareState
libgestures.so.0:_ZN8gestures34Cr48ProfileSensorFilterInterpreter19UpdateFingerPatternEP13HardwareStateRKNS_14FingerPositionE
libgestures.so.0:_ZN8gestures34Cr48ProfileSensorFilterInterpreter21CorrectFingerPositionEP13HardwareState
libgestures.so.0:_ZN8gestures34Cr48ProfileSensorFilterInterpreter21SuppressOneFingerJumpEP13HardwareState
libgestures.so.0:_ZN8gestures34Cr48ProfileSensorFilterInterpreter22UpdateAbsolutePositionEP13HardwareStateRKNS_14FingerPositionEffff
libgestures.so.0:_ZN8gestures34Cr48ProfileSensorFilterInterpreter24EnforceBoundingBoxFormatEP13HardwareState
libgestures.so.0:_ZN8gestures34Cr48ProfileSensorFilterInterpreter26SuppressOneToTwoFingerJumpEP13HardwareState
libgestures.so.0:_ZN8gestures34Cr48ProfileSensorFilterInterpreter26SuppressTwoToOneFingerJumpEP13HardwareState
libgestures.so.0:_ZN8gestures34Cr48ProfileSensorFilterInterpreter27ClipNonLinearFingerPositionEP13HardwareState
libgestures.so.0:_ZN8gestures34Cr48ProfileSensorFilterInterpreterC1EPNS_12PropRegistryEPNS_11InterpreterEPNS_6TracerE
libgestures.so.0:_ZN8gestures34Cr48ProfileSensorFilterInterpreterC2EPNS_12PropRegistryEPNS_11InterpreterEPNS_6TracerE
libgestures.so.0:_ZN8gestures37StuckButtonInhibitorFilterInterpreter14ConsumeGestureERK7Gesture
libgestures.so.0:_ZN8gestures37StuckButtonInhibitorFilterInterpreter14HandleTimeoutsEdPd
libgestures.so.0:_ZN8gestures37StuckButtonInhibitorFilterInterpreter15HandleTimerImplEdPd
libgestures.so.0:_ZN8gestures37StuckButtonInhibitorFilterInterpreter17SyncInterpretImplEP13HardwareStatePd
libgestures.so.0:_ZN8gestures37StuckButtonInhibitorFilterInterpreter19HandleHardwareStateERK13HardwareState
libgestures.so.0:_ZN8gestures37StuckButtonInhibitorFilterInterpreterC1EPNS_11InterpreterEPNS_6TracerE
libgestures.so.0:_ZN8gestures37StuckButtonInhibitorFilterInterpreterC2EPNS_11InterpreterEPNS_6TracerE
libgestures.so.0:_ZN8gestures3AddERKNS_7Vector2ES2_
libgestures.so.0:_ZN8gestures3DotERKNS_7Vector2ES2_
libgestures.so.0:_ZN8gestures3SubERKNS_7Vector2ES2_
libgestures.so.0:_ZN8gestures6Origin11PushGestureERK7Gesture
libgestures.so.0:_ZN8gestures6Tracer5TraceEPKcS2_
libgestures.so.0:_ZN8gestures6TracerC1EPNS_12PropRegistryEPFvPKcE
libgestures.so.0:_ZN8gestures6TracerC2EPNS_12PropRegistryEPFvPKcE
libgestures.so.0:_ZN8gestures7Metrics5ClearEv
libgestures.so.0:_ZN8gestures7Metrics6UpdateERK13HardwareState
libgestures.so.0:_ZN8gestures7MetricsC1EPNS_17MetricsPropertiesE
libgestures.so.0:_ZN8gestures7MetricsC2EPNS_17MetricsPropertiesE
libgestures.so.0:_ZN8gestures8OpenFileEPKcS1_
libgestures.so.0:_ZN8gestures8Property10CreatePropEv
libgestures.so.0:_ZN8gestures8Property11DestroyPropEv
libgestures.so.0:_ZN8gestures9CloseFileEP8_IO_FILE
libgestures.so.0:_ZN8gestures9TapRecord11NoteReleaseEs
libgestures.so.0:_ZN8gestures9TapRecord5ClearEv
libgestures.so.0:_ZN8gestures9TapRecord6RemoveEs
libgestures.so.0:_ZN8gestures9TapRecord6UpdateERK13HardwareStateS3_RKNS_3setIsLm10EEES7_S7_
libgestures.so.0:_ZN8gestures9TapRecord9NoteTouchEsRK11FingerState
libgestures.so.0:_ZN8gestures9WriteFileEPKcS1_i
libgestures.so.0:_ZNK11FingerState6StringB5cxx11Ev
libgestures.so.0:_ZNK13HardwareState13SameFingersAsERKS_
libgestures.so.0:_ZNK13HardwareState14GetFingerStateEs
libgestures.so.0:_ZNK13HardwareState6StringB5cxx11Ev
libgestures.so.0:_ZNK18HardwareProperties6StringB5cxx11Ev
libgestures.so.0:_ZNK7Gesture6StringB5cxx11Ev
libgestures.so.0:_ZNK7GestureeqERKS_
libgestures.so.0:_ZNK8gestures11ActivityLog24EncodeHardwarePropertiesEv
libgestures.so.0:_ZNK8gestures11IntProperty8NewValueEv
libgestures.so.0:_ZNK8gestures11TraceMarker11FindDebugfsEPPKc
libgestures.so.0:_ZNK8gestures11TraceMarker15FindTraceMarkerEPPc
libgestures.so.0:_ZNK8gestures12BoolProperty8NewValueEv
libgestures.so.0:_ZNK8gestures13ScrollManager12ComputeFlingERKNS_19HardwareStateBufferERKNS_17ScrollEventBufferEP7Gesture
libgestures.so.0:_ZNK8gestures13ScrollManager21RegressScrollVelocityERKNS_17ScrollEventBufferEiPNS_11ScrollEventE
libgestures.so.0:_ZNK8gestures13ScrollManager23UpdateScrollEventBufferE11GestureTypePNS_17ScrollEventBufferE
libgestures.so.0:_ZNK8gestures13ScrollManager25ScrollEventsForFlingCountERKNS_17ScrollEventBufferE
libgestures.so.0:_ZNK8gestures13ScrollManager45StationaryFingerPressureChangingSignificantlyERKNS_19HardwareStateBufferERK11FingerState
libgestures.so.0:_ZNK8gestures13ShortProperty8NewValueEv
libgestures.so.0:_ZNK8gestures14DoubleProperty8NewValueEv
libgestures.so.0:_ZNK8gestures14StringProperty8NewValueEv
libgestures.so.0:_ZNK8gestures16IntArrayProperty8NewValueEv
libgestures.so.0:_ZNK8gestures17BoolArrayProperty8NewValueEv
libgestures.so.0:_ZNK8gestures17FingerButtonClick26GetButtonTypeForTouchCountEi
libgestures.so.0:_ZNK8gestures17ScrollEventBuffer10GetSpeedSqEmPfS1_
libgestures.so.0:_ZNK8gestures17ScrollEventBuffer3GetEm
libgestures.so.0:_ZNK8gestures18ShortArrayProperty8NewValueEv
libgestures.so.0:_ZNK8gestures19DoubleArrayProperty8NewValueEv
libgestures.so.0:_ZNK8gestures19FingerEnergyHistory3GetEm
libgestures.so.0:_ZNK8gestures19FingerEnergyHistoryeqERKS0_
libgestures.so.0:_ZNK8gestures19FingerEnergyHistoryneERKS0_
libgestures.so.0:_ZNK8gestures20IirFilterInterpreter9IoHistoryeqERKS1_
libgestures.so.0:_ZNK8gestures20ImmediateInterpreter17IsTooCloseToThumbERK11FingerState
libgestures.so.0:_ZNK8gestures20ImmediateInterpreter19DistanceTravelledSqERK11FingerStatebb
libgestures.so.0:_ZNK8gestures20ImmediateInterpreter19GetGesturingFingersERK13HardwareState
libgestures.so.0:_ZNK8gestures20ImmediateInterpreter19TwoFingerDistanceSqERK13HardwareState
libgestures.so.0:_ZNK8gestures20ImmediateInterpreter19TwoFingersGesturingERK11FingerStateS3_b
libgestures.so.0:_ZNK8gestures20ImmediateInterpreter20FingerInDampenedZoneERK11FingerState
libgestures.so.0:_ZNK8gestures20ImmediateInterpreter20FingerTraveledVectorERK11FingerStatebb
libgestures.so.0:_ZNK8gestures20ImmediateInterpreter20KeyboardRecentlyUsedEd
libgestures.so.0:_ZNK8gestures20ImmediateInterpreter25PalmIsArrivingOrDepartingERK11FingerState
libgestures.so.0:_ZNK8gestures26FlingStopFilterInterpreter14NeedsExtraTimeERK13HardwareState
libgestures.so.0:_ZNK8gestures26LookaheadFilterInterpreter18ExtraVariableDelayEv
libgestures.so.0:_ZNK8gestures26LookaheadFilterInterpreter19LiftoffJumpStartingERK13HardwareStateS3_S3_
libgestures.so.0:_ZNK8gestures28ClickWiggleFilterInterpreter12SetWarpFlagsEP13HardwareState
libgestures.so.0:_ZNK8gestures28FingerMergeFilterInterpreter17IsSuspiciousAngleERK11FingerState
libgestures.so.0:_ZNK8gestures29NonLinearityFilterInterpreter10ErrorIndexEmmm
libgestures.so.0:_ZNK8gestures29NonLinearityFilterInterpreter10FindBoundsEfRKSt10unique_ptrIA_dSt14default_deleteIS2_EEm
libgestures.so.0:_ZNK8gestures29NonLinearityFilterInterpreter17LinearInterpolateERKNS0_5ErrorES3_f
libgestures.so.0:_ZNK8gestures29NonLinearityFilterInterpreter8GetErrorEfff
libgestures.so.0:_ZNK8gestures32PalmClassifyingFilterInterpreter9FingerAgeEsd
libgestures.so.0:_ZNK8gestures32SplitCorrectingFilterInterpreter10FindMergedEs
libgestures.so.0:_ZNK8gestures32SplitCorrectingFilterInterpreter12AreMergePairERK11FingerStateS3_RKNS_15UnmergedContactE
libgestures.so.0:_ZNK8gestures32SplitCorrectingFilterInterpreter12FindUnmergedEs
libgestures.so.0:_ZNK8gestures32SplitCorrectingFilterInterpreter13UpdateHwStateEP13HardwareState
libgestures.so.0:_ZNK8gestures32SplitCorrectingFilterInterpreter4DumpERK13HardwareState
libgestures.so.0:_ZNK8gestures6Origin13ButtonGoingUpEi
libgestures.so.0:_ZNK8gestures7Metrics20CloseEnoughToGestureERKNS_7Vector2ES3_
libgestures.so.0:_ZNK8gestures7Metrics9GetFingerERK11FingerState
libgestures.so.0:_ZNK8gestures7Metrics9GetFingerEs
libgestures.so.0:_ZNK8gestures9TapRecord10MotionlessERK13HardwareStateS3_f
libgestures.so.0:_ZNK8gestures9TapRecord11TapCompleteEv
libgestures.so.0:_ZNK8gestures9TapRecord16CotapMinPressureEv
libgestures.so.0:_ZNK8gestures9TapRecord17MinTapPressureMetEv
libgestures.so.0:_ZNK8gestures9TapRecord18FingersBelowMaxAgeEv
libgestures.so.0:_ZNK8gestures9TapRecord6MovingERK13HardwareStatef
libgestures.so.0:_ZNK8gestures9TapRecord7TapTypeEv
libgestures.so.0:_ZNK8gestures9TapRecord8TapBeganEv
libgestures.so.0:_ZThn72_N8gestures17FilterInterpreter14ConsumeGestureERK7Gesture
libgestures.so.0:_ZThn72_N8gestures20ImmediateInterpreter13IntWasWrittenEPNS_11IntPropertyE
libgestures.so.0:_ZThn72_N8gestures22AccelFilterInterpreter14ConsumeGestureERK7Gesture
libgestures.so.0:_ZThn72_N8gestures24ScalingFilterInterpreter14ConsumeGestureERK7Gesture
libgestures.so.0:_ZThn72_N8gestures26FlingStopFilterInterpreter14ConsumeGestureERK7Gesture
libgestures.so.0:_ZThn72_N8gestures26LookaheadFilterInterpreter14ConsumeGestureERK7Gesture
libgestures.so.0:_ZThn72_N8gestures32IntegralGestureFilterInterpreter14ConsumeGestureERK7Gesture
libgestures.so.0:_ZThn72_N8gestures37StuckButtonInhibitorFilterInterpreter14ConsumeGestureERK7Gesture
libgestures.so.0:_ZThn88_N8gestures20IirFilterInterpreter16DoubleWasWrittenEPNS_14DoublePropertyE
libgestures.so.0:_ZThn88_N8gestures24LoggingFilterInterpreter13IntWasWrittenEPNS_11IntPropertyE
libgestures.so.0:gestures_log
